Certificate:
    Data:
        Version: 3 (0x2)
        Serial Number: 2 (0x2)
    Signature Algorithm: sha256WithRSAEncryption
        Issuer: CN=10.1.1.10@1495102878
        Validity
            Not Before: May 18 10:21:19 2017 GMT
            Not After : May 16 10:21:19 2027 GMT
        Subject: O=system:masters, CN=kubecfg
        Subject Public Key Info:
            Public Key Algorithm: rsaEncryption
                Public-Key: (2048 bit)
                Modulus:
                    00:b5:6f:dc:f5:86:3c:60:67:c3:bd:1c:e8:91:9c:
                    60:2e:c1:70:12:74:b8:87:bd:b4:4c:e7:a5:00:a1:
                    cf:c3:0d:c6:d8:f0:a3:57:d5:a0:b8:3e:32:94:6e:
                    69:17:79:93:e7:50:f7:09:9b:45:6b:05:3e:62:57:
                    49:6e:57:a0:f2:ce:63:ca:b8:14:69:a4:3a:32:78:
                    ce:ad:9c:77:93:d2:a3:f5:a5:df:ea:b9:52:38:6a:
                    57:8f:b0:72:a1:35:c1:23:23:37:53:b9:e4:7c:48:
                    46:55:09:7f:99:71:15:59:f1:5a:44:4d:09:48:04:
                    e9:2a:88:7b:1e:21:41:31:bf:63:4a:e3:5d:e2:7d:
                    54:c7:34:ef:49:6d:88:2b:82:64:f8:c8:5f:99:e0:
                    36:c6:f7:e6:7f:97:12:02:c5:47:24:7b:48:09:31:
                    c5:b3:29:61:a9:01:32:00:28:85:06:b5:62:c5:c2:
                    3c:5e:49:59:a4:41:99:67:36:26:c8:d7:6c:db:b7:
                    0b:62:46:45:cc:ba:4c:c1:a8:28:42:1e:2a:44:01:
                    13:99:f5:14:64:2c:3a:de:35:22:90:1e:04:5e:ca:
                    9a:79:60:ca:7a:b9:f4:16:d1:03:3e:02:c7:02:e8:
                    3f:0e:f5:59:5a:70:8f:6f:83:19:12:c2:d1:4d:09:
                    af:7f
                Exponent: 65537 (0x10001)
        X509v3 extensions:
            X509v3 Basic Constraints: 
                CA:FALSE
            X509v3 Subject Key Identifier: 
                3A:32:FB:FA:84:4F:B3:17:32:EF:B9:64:7A:5A:72:16:93:5C:FB:B6
            X509v3 Authority Key Identifier: 
                keyid:3D:F6:D8:A6:9B:49:C5:B8:D0:A3:1E:E3:29:E6:0A:AA:67:9F:51:78
                DirName:/CN=10.1.1.10@1495102878
                serial:CE:4A:49:3C:27:4B:DF:32

            X509v3 Extended Key Usage: 
                TLS Web Client Authentication
            X509v3 Key Usage: 
                Digital Signature
    Signature Algorithm: sha256WithRSAEncryption
         8d:0f:2a:77:e6:e2:83:d1:aa:e0:dd:1e:8a:ae:a6:aa:b6:0d:
         9d:22:4f:89:49:de:7b:82:c7:65:86:e2:0b:6d:b7:72:bf:1b:
         ba:f1:38:41:82:b0:b1:94:94:a4:93:44:ac:49:12:7f:da:0a:
         b2:d8:23:d7:bd:42:63:d2:73:d2:a1:54:05:11:2c:68:84:cd:
         aa:00:e7:8b:b6:2a:05:b9:df:62:c3:8d:e1:eb:bc:8a:84:51:
         07:a1:59:a2:4b:27:05:f0:13:95:34:fb:6a:87:ec:db:d4:c2:
         0a:87:35:bb:ca:15:f1:b0:34:6c:1e:f7:c1:13:62:54:00:79:
         ba:e5:c6:bc:03:e0:b7:65:58:a4:7f:d1:7c:95:cf:bb:7d:08:
         4c:c9:3c:45:d7:54:20:f4:be:3b:f4:07:0a:ce:59:19:16:4d:
         b3:53:e1:51:41:78:f0:2d:01:09:cd:46:ed:59:a3:dd:94:63:
         0a:a2:d0:a4:d9:83:79:c8:71:a8:1f:87:91:39:e0:60:a7:37:
         c3:27:b6:0d:5d:fe:88:c9:49:a0:ef:fe:fa:30:54:cb:ca:f6:
         85:b8:10:3e:70:75:98:f2:88:60:08:1f:2e:f0:e6:23:42:36:
         bb:df:95:e1:15:22:b5:7a:5f:bc:1f:fc:cc:05:28:60:6c:9a:
         79:51:74:f3
-----BEGIN CERTIFICATE-----
MIIDZjCCAk6gAwIBAgIBAjANBgkqhkiG9w0BAQsFADAfMR0wGwYDVQQDDBQxMC4x
LjEuMTBAMTQ5NTEwMjg3ODAeFw0xNzA1MTgxMDIxMTlaFw0yNzA1MTYxMDIxMTla
MCsxFzAVBgNVBAoMDnN5c3RlbTptYXN0ZXJzMRAwDgYDVQQDDAdrdWJlY2ZnMIIB
IjANBgkqhkiG9w0BAQEFAAOCAQ8AMIIBCgKCAQEAtW/c9YY8YGfDvRzokZxgLsFw
EnS4h720TOelAKHPww3G2PCjV9WguD4ylG5pF3mT51D3CZtFawU+YldJbleg8s5j
yrgUaaQ6MnjOrZx3k9Kj9aXf6rlSOGpXj7ByoTXBIyM3U7nkfEhGVQl/mXEVWfFa
RE0JSATpKoh7HiFBMb9jSuNd4n1UxzTvSW2IK4Jk+MhfmeA2xvfmf5cSAsVHJHtI
CTHFsylhqQEyACiFBrVixcI8XklZpEGZZzYmyNds27cLYkZFzLpMwagoQh4qRAET
mfUUZCw63jUikB4EXsqaeWDKern0FtEDPgLHAug/DvVZWnCPb4MZEsLRTQmvfwID
AQABo4GgMIGdMAkGA1UdEwQCMAAwHQYDVR0OBBYEFDoy+/qET7MXMu+5ZHpachaT
XPu2ME8GA1UdIwRIMEaAFD322KabScW40KMe4ynmCqpnn1F4oSOkITAfMR0wGwYD
VQQDDBQxMC4xLjEuMTBAMTQ5NTEwMjg3OIIJAM5KSTwnS98yMBMGA1UdJQQMMAoG
CCsGAQUFBwMCMAsGA1UdDwQEAwIHgDANBgkqhkiG9w0BAQsFAAOCAQEAjQ8qd+bi
g9Gq4N0eiq6mqrYNnSJPiUnee4LHZYbiC223cr8buvE4QYKwsZSUpJNErEkSf9oK
stgj171CY9Jz0qFUBREsaITNqgDni7YqBbnfYsON4eu8ioRRB6FZoksnBfATlTT7
aofs29TCCoc1u8oV8bA0bB73wRNiVAB5uuXGvAPgt2VYpH/RfJXPu30ITMk8RddU
IPS+O/QHCs5ZGRZNs1PhUUF48C0BCc1G7Vmj3ZRjCqLQpNmDechxqB+HkTngYKc3
wye2DV3+iMlJoO/++jBUy8r2hbgQPnB1mPKIYAgfLvDmI0I2u9+V4RUitXpfvB/8
zAUoYGyaeVF08w==
-----END CERTIFICATE-----
